target datalayout = "e-m:e-p270:32:32-p271:32:32-p272:64:64-i64:64-i128:128-f80:128-n8:16:32:64-S128"
target triple = "x86_64-pc-linux-gnu"

%"struct.cv::SimpleBlobDetector::Params" = type <{ float, float, float, [4 x i8], i64, float, i8, i8, i8, i8, float, float, i8, [3 x i8], float, float, i8, [3 x i8], float, float, i8, [3 x i8], float, float, i8, [3 x i8] }>
%"class.cv::SimpleBlobDetectorImpl" = type { %"class.cv::SimpleBlobDetector", %"struct.cv::SimpleBlobDetector::Params", %"class.std::vector" }
%"class.cv::SimpleBlobDetector" = type { %"class.cv::Feature2D" }
%"class.cv::Feature2D" = type { %"class.cv::Algorithm" }
%"class.cv::Algorithm" = type { ptr }
%"class.std::vector" = type { %"struct.std::_Vector_base" }
%"struct.std::_Vector_base" = type { %"struct.std::_Vector_base<std::vector<cv::Point_<int>>, std::allocator<std::vector<cv::Point_<int>>>>::_Vector_impl" }
%"struct.std::_Vector_base<std::vector<cv::Point_<int>>, std::allocator<std::vector<cv::Point_<int>>>>::_Vector_impl" = type { %"struct.std::_Vector_base<std::vector<cv::Point_<int>>, std::allocator<std::vector<cv::Point_<int>>>>::_Vector_impl_data" }
%"struct.std::_Vector_base<std::vector<cv::Point_<int>>, std::allocator<std::vector<cv::Point_<int>>>>::_Vector_impl_data" = type { ptr, ptr, ptr }

@_ZN2cv18SimpleBlobDetector6ParamsC1Ev = unnamed_addr alias void (ptr), ptr @_ZN2cv18SimpleBlobDetector6ParamsC2Ev

; Function Attrs: mustprogress uwtable
define void @_ZN2cv22SimpleBlobDetectorImpl4readERKNS_8FileNodeE(ptr noundef nonnull align 8 dereferenceable(112) %0, ptr noundef nonnull align 8 dereferenceable(24) %1) unnamed_addr #4 align 2 {
  %3 = alloca ptr, align 8
  %4 = alloca ptr, align 8
  %5 = alloca %"struct.cv::SimpleBlobDetector::Params", align 8
  store ptr %0, ptr %3, align 8
  store ptr %1, ptr %4, align 8
  %6 = load ptr, ptr %3, align 8
  call void @_ZN2cv18SimpleBlobDetector6ParamsC1Ev(ptr noundef nonnull align 8 dereferenceable(77) %5)
  %7 = load ptr, ptr %4, align 8
  call void @_ZN2cv18SimpleBlobDetector6Params4readERKNS_8FileNodeE(ptr noundef nonnull align 8 dereferenceable(77) %5, ptr noundef nonnull align 8 dereferenceable(24) %7)
  call void @_ZN2cv22SimpleBlobDetectorImpl18validateParametersERKNS_18SimpleBlobDetector6ParamsE(ptr noundef nonnull align 8 dereferenceable(77) %5)
  %8 = getelementptr inbounds %"class.cv::SimpleBlobDetectorImpl", ptr %6, i32 0, i32 1
  call void @llvm.memcpy.p0.p0.i64(ptr align 8 %8, ptr align 8 %5, i64 77, i1 false)
  ret void
}