; Function Attrs: mustprogress uwtable
define void @_ZN2cv22SimpleBlobDetectorImpl4readERKNS_8FileNodeE(ptr nocapture noundef nonnull writeonly align 8 dereferenceable(112) %0, ptr noundef nonnull align 8 dereferenceable(24) %1) unnamed_addr #6 align 2 {
  %3 = alloca %"struct.cv::SimpleBlobDetector::Params", align 8
  call void @_ZN2cv18SimpleBlobDetector6ParamsC1Ev(ptr noundef nonnull align 8 dereferenceable(77) %3)
  call void @_ZN2cv18SimpleBlobDetector6Params4readERKNS_8FileNodeE(ptr noundef nonnull align 8 dereferenceable(77) %3, ptr noundef nonnull align 8 dereferenceable(24) %1)
  call void @_ZN2cv22SimpleBlobDetectorImpl18validateParametersERKNS_18SimpleBlobDetector6ParamsE(ptr noundef nonnull align 8 dereferenceable(77) %3)
  %4 = getelementptr inbounds i8, ptr %0, i64 8
  call void @llvm.memcpy.p0.p0.i64(ptr noundef nonnull align 8 dereferenceable(77) %4, ptr noundef nonnull align 8 dereferenceable(77) %3, i64 77, i1 false)
  ret void
}